; Function Attrs: mustprogress nounwind uwtable
define dso_local void @_ZN4llvm8LLParser28parseOptionalDLLStorageClassERj(ptr noundef nonnull align 8 dereferenceable(1768) %0, ptr nocapture noundef nonnull writeonly align 4 dereferenceable(4) %1) local_unnamed_addr #0 align 2 {
  %3 = getelementptr inbounds nuw i8, ptr %0, i64 176
  %4 = getelementptr inbounds i8, ptr %0, i64 232
  %5 = load i32, ptr %4, align 8
  switch i32 %5, label %6 [
    i32 35, label %8
    i32 36, label %7
  ]

6:                                                ; preds = %2
  store i32 0, ptr %1, align 4
  br label %10

7:                                                ; preds = %2
  br label %8

8:                                                ; preds = %2, %7
  %storemerge = phi i32 [ 2, %7 ], [ 1, %2 ]
  store i32 %storemerge, ptr %1, align 4
  %9 = tail call noundef i32 @_ZN4llvm7LLLexer8LexTokenEv(ptr noundef nonnull align 8 dereferenceable(161) %3) #25
  store i32 %9, ptr %4, align 8
  br label %10

10:                                               ; preds = %8, %6
  ret void
}